; Function Attrs: mustprogress uwtable
define noundef i32 @_Z9write_trxP11t_trxstatusiPKiPK7t_atomsifPA3_fS7_S7_P12gmx_conect_t(ptr nocapture noundef readonly %0, i32 noundef %1, ptr noundef %2, ptr noundef %3, i32 noundef %4, float noundef %5, ptr nocapture noundef readonly %6, ptr noundef %7, ptr noundef %8, ptr noundef %9) local_unnamed_addr #2 {
  %11 = alloca %struct.t_trxframe, align 8
  store i32 0, ptr %11, align 8
  %12 = getelementptr inbounds i8, ptr %11, i64 12
  %13 = getelementptr inbounds i8, ptr %11, i64 24
  %14 = getelementptr inbounds i8, ptr %11, i64 32
  store i8 0, ptr %14, align 8
  %15 = getelementptr inbounds i8, ptr %11, i64 33
  store i8 0, ptr %15, align 1
  %16 = getelementptr inbounds i8, ptr %11, i64 44
  %17 = getelementptr inbounds i8, ptr %11, i64 56
  store i8 0, ptr %17, align 8
  %18 = getelementptr inbounds i8, ptr %11, i64 64
  %19 = getelementptr inbounds i8, ptr %11, i64 80
  %20 = getelementptr inbounds i8, ptr %11, i64 96
  store i8 0, ptr %20, align 8
  %21 = getelementptr inbounds i8, ptr %11, i64 112
  %22 = getelementptr inbounds i8, ptr %11, i64 4
  store i8 0, ptr %22, align 4
  %23 = getelementptr inbounds i8, ptr %11, i64 8
  store i32 -1, ptr %23, align 8
  %24 = getelementptr inbounds i8, ptr %11, i64 16
  %25 = getelementptr inbounds i8, ptr %11, i64 28
  %26 = getelementptr inbounds i8, ptr %11, i64 36
  store float 0.000000e+00, ptr %26, align 4
  %27 = getelementptr inbounds i8, ptr %11, i64 40
  store i32 0, ptr %27, align 8
  %28 = getelementptr inbounds i8, ptr %11, i64 48
  %29 = getelementptr inbounds i8, ptr %11, i64 60
  store float 0.000000e+00, ptr %29, align 4
  %30 = getelementptr inbounds i8, ptr %11, i64 72
  %31 = getelementptr inbounds i8, ptr %11, i64 88
  %32 = getelementptr inbounds i8, ptr %11, i64 104
  store ptr null, ptr %32, align 8
  %33 = getelementptr inbounds i8, ptr %11, i64 116
  %34 = getelementptr inbounds i8, ptr %11, i64 156
  %35 = getelementptr inbounds i8, ptr %11, i64 152
  store i8 0, ptr %35, align 8
  store i32 4, ptr %34, align 4
  %36 = getelementptr inbounds i8, ptr %11, i64 160
  store i8 0, ptr %36, align 8
  %37 = getelementptr inbounds i8, ptr %11, i64 168
  store ptr null, ptr %37, align 8
  store i8 1, ptr %12, align 4
  %38 = sext i32 %4 to i64
  store i64 %38, ptr %24, align 8
  store i8 1, ptr %13, align 8
  store float %5, ptr %25, align 4
  %39 = icmp ne ptr %3, null
  %40 = zext i1 %39 to i8
  store i8 %40, ptr %16, align 4
  store ptr %3, ptr %28, align 8
  store i8 1, ptr %18, align 8
  store ptr %7, ptr %30, align 8
  %41 = icmp ne ptr %8, null
  %42 = zext i1 %41 to i8
  store i8 %42, ptr %19, align 8
  store ptr %8, ptr %31, align 8
  store i8 1, ptr %21, align 8
  %43 = load <8 x float>, ptr %6, align 4
  store <8 x float> %43, ptr %33, align 4
  %44 = getelementptr inbounds i8, ptr %6, i64 32
  %45 = load float, ptr %44, align 4
  %46 = getelementptr inbounds i8, ptr %11, i64 148
  store float %45, ptr %46, align 4
  %47 = call noundef i32 @_Z22write_trxframe_indexedP11t_trxstatusPK10t_trxframeiPKiP12gmx_conect_t(ptr noundef %0, ptr noundef nonnull %11, i32 noundef %1, ptr noundef %2, ptr noundef %9)
  ret i32 0
}